; ModuleID = '12/760.c'
source_filename = "12/760.c"
target datalayout = "e-m:e-p270:32:32-p271:32:32-p272:64:64-i64:64-f80:128-n8:16:32:64-S128"
target triple = "x86_64-pc-linux-gnu"

@.str = private unnamed_addr constant [3 x i8] c"%d\00", align 1
@.str.1 = private unnamed_addr constant [4 x i8] c"%d\0A\00", align 1

; Function Attrs: noinline nounwind uwtable
define dso_local void @main() #0 {
  %1 = alloca [16 x i32], align 16
  %2 = alloca i32, align 4
  %3 = alloca i32, align 4
  %4 = alloca i32, align 4
  %5 = alloca i32, align 4
  br label %6

6:                                                ; preds = %68, %0
  %7 = getelementptr inbounds [16 x i32], [16 x i32]* %1, i64 0, i64 0
  %8 = load i32, i32* %7, align 16
  %9 = icmp ne i32 %8, -1
  br i1 %9, label %10, label %71

10:                                               ; preds = %6
  store i32 0, i32* %5, align 4
  %11 = getelementptr inbounds [16 x i32], [16 x i32]* %1, i64 0, i64 0
  %12 = call i32 (i8*, ...) @__isoc99_scanf(i8* getelementptr inbounds ([3 x i8], [3 x i8]* @.str, i64 0, i64 0), i32* %11)
  %13 = getelementptr inbounds [16 x i32], [16 x i32]* %1, i64 0, i64 0
  %14 = load i32, i32* %13, align 16
  %15 = icmp eq i32 %14, -1
  br i1 %15, label %16, label %17

16:                                               ; preds = %10
  br label %71

17:                                               ; preds = %10
  store i32 1, i32* %2, align 4
  br label %18

18:                                               ; preds = %33, %17
  %19 = load i32, i32* %2, align 4
  %20 = icmp slt i32 %19, 16
  br i1 %20, label %21, label %36

21:                                               ; preds = %18
  %22 = load i32, i32* %2, align 4
  %23 = sext i32 %22 to i64
  %24 = getelementptr inbounds [16 x i32], [16 x i32]* %1, i64 0, i64 %23
  %25 = call i32 (i8*, ...) @__isoc99_scanf(i8* getelementptr inbounds ([3 x i8], [3 x i8]* @.str, i64 0, i64 0), i32* %24)
  %26 = load i32, i32* %2, align 4
  %27 = sext i32 %26 to i64
  %28 = getelementptr inbounds [16 x i32], [16 x i32]* %1, i64 0, i64 %27
  %29 = load i32, i32* %28, align 4
  %30 = icmp eq i32 %29, 0
  br i1 %30, label %31, label %32

31:                                               ; preds = %21
  br label %36

32:                                               ; preds = %21
  br label %33

33:                                               ; preds = %32
  %34 = load i32, i32* %2, align 4
  %35 = add nsw i32 %34, 1
  store i32 %35, i32* %2, align 4
  br label %18

36:                                               ; preds = %31, %18
  store i32 0, i32* %3, align 4
  br label %37

37:                                               ; preds = %65, %36
  %38 = load i32, i32* %3, align 4
  %39 = load i32, i32* %2, align 4
  %40 = icmp slt i32 %38, %39
  br i1 %40, label %41, label %68

41:                                               ; preds = %37
  store i32 0, i32* %4, align 4
  br label %42

42:                                               ; preds = %61, %41
  %43 = load i32, i32* %4, align 4
  %44 = load i32, i32* %2, align 4
  %45 = icmp slt i32 %43, %44
  br i1 %45, label %46, label %64

46:                                               ; preds = %42
  %47 = load i32, i32* %4, align 4
  %48 = sext i32 %47 to i64
  %49 = getelementptr inbounds [16 x i32], [16 x i32]* %1, i64 0, i64 %48
  %50 = load i32, i32* %49, align 4
  %51 = mul nsw i32 2, %50
  %52 = load i32, i32* %3, align 4
  %53 = sext i32 %52 to i64
  %54 = getelementptr inbounds [16 x i32], [16 x i32]* %1, i64 0, i64 %53
  %55 = load i32, i32* %54, align 4
  %56 = icmp eq i32 %51, %55
  br i1 %56, label %57, label %60

57:                                               ; preds = %46
  %58 = load i32, i32* %5, align 4
  %59 = add nsw i32 %58, 1
  store i32 %59, i32* %5, align 4
  br label %60

60:                                               ; preds = %57, %46
  br label %61

61:                                               ; preds = %60
  %62 = load i32, i32* %4, align 4
  %63 = add nsw i32 %62, 1
  store i32 %63, i32* %4, align 4
  br label %42

64:                                               ; preds = %42
  br label %65

65:                                               ; preds = %64
  %66 = load i32, i32* %3, align 4
  %67 = add nsw i32 %66, 1
  store i32 %67, i32* %3, align 4
  br label %37

68:                                               ; preds = %37
  %69 = load i32, i32* %5, align 4
  %70 = call i32 (i8*, ...) @printf(i8* getelementptr inbounds ([4 x i8], [4 x i8]* @.str.1, i64 0, i64 0), i32 %69)
  br label %6

71:                                               ; preds = %16, %6
  ret void
}

declare dso_local i32 @__isoc99_scanf(i8*, ...) #1

declare dso_local i32 @printf(i8*, ...) #1


!llvm.module.flags = !{!0}
!llvm.ident = !{!1}

!0 = !{i32 1, !"wchar_size", i32 4}
!1 = !{!"clang version 10.0.0-4ubuntu1 "}
